target datalayout = "e-m:e-p270:32:32-p271:32:32-p272:64:64-i64:64-i128:128-f80:128-n8:16:32:64-S128"
target triple = "x86_64-unknown-linux-gnu"

%"class.icu_75::MaybeStackArray" = type <{ ptr, i32, i8, [40 x i8], [3 x i8] }>
%"class.icu_75::MeasureUnit" = type <{ %"class.icu_75::UObject", ptr, i16, i8, [5 x i8] }>
%"class.icu_75::UObject" = type { ptr }
%"class.icu_75::MeasureUnitImpl" = type { i32, %"class.icu_75::MaybeStackVector", %"class.icu_75::CharString" }
%"class.icu_75::MaybeStackVector" = type { %"class.icu_75::MemoryPool" }
%"class.icu_75::MemoryPool" = type { i32, %"class.icu_75::MaybeStackArray.0" }
%"class.icu_75::MaybeStackArray.0" = type { ptr, i32, i8, [8 x ptr] }
%"class.icu_75::CharString" = type { %"class.icu_75::MaybeStackArray", i32, [4 x i8] }

@_ZN6icu_7515MaybeStackArrayIcLi40EED1Ev = weak_odr unnamed_addr alias void (ptr), ptr @_ZN6icu_7515MaybeStackArrayIcLi40EED2Ev

; Function Attrs: mustprogress uwtable
define linkonce_odr void @_ZN6icu_7515MaybeStackArrayIPNS_14SingleUnitImplELi8EE12releaseArrayEv(ptr noundef nonnull align 8 dereferenceable(80) %this) #1 comdat align 2 {
entry:
  %this.addr = alloca ptr, align 8
  store ptr %this, ptr %this.addr, align 8
  %this1 = load ptr, ptr %this.addr, align 8
  %needToRelease = getelementptr inbounds %"class.icu_75::MaybeStackArray.0", ptr %this1, i32 0, i32 2
  %0 = load i8, ptr %needToRelease, align 4
  %tobool = icmp ne i8 %0, 0
  br i1 %tobool, label %if.then, label %if.end

if.then:                                          ; preds = %entry
  %ptr = getelementptr inbounds %"class.icu_75::MaybeStackArray.0", ptr %this1, i32 0, i32 0
  %1 = load ptr, ptr %ptr, align 8
  call void @uprv_free_75(ptr noundef %1)
  br label %if.end

if.end:                                           ; preds = %if.then, %entry
  ret void
}

; Function Attrs: mustprogress nounwind uwtable
define linkonce_odr void @_ZN6icu_7515MaybeStackArrayIPNS_14SingleUnitImplELi8EED2Ev(ptr noundef nonnull align 8 dereferenceable(80) %this) unnamed_addr #0 comdat align 2 personality ptr @__gxx_personality_v0 {
entry:
  %this.addr = alloca ptr, align 8
  store ptr %this, ptr %this.addr, align 8
  %this1 = load ptr, ptr %this.addr, align 8
  invoke void @_ZN6icu_7515MaybeStackArrayIPNS_14SingleUnitImplELi8EE12releaseArrayEv(ptr noundef nonnull align 8 dereferenceable(80) %this1)
          to label %invoke.cont unwind label %terminate.lpad

invoke.cont:                                      ; preds = %entry
  ret void

terminate.lpad:                                   ; preds = %entry
  %0 = landingpad { ptr, i32 }
          catch ptr null
  %1 = extractvalue { ptr, i32 } %0, 0
  call void @__clang_call_terminate(ptr %1) #10
  unreachable
}

; Function Attrs: mustprogress nounwind uwtable
define linkonce_odr noundef nonnull align 8 dereferenceable(8) ptr @_ZN6icu_7515MaybeStackArrayIPNS_14SingleUnitImplELi8EEixEl(ptr noundef nonnull align 8 dereferenceable(80) %this, i64 noundef %i) #0 comdat align 2 {
entry:
  %this.addr = alloca ptr, align 8
  %i.addr = alloca i64, align 8
  store ptr %this, ptr %this.addr, align 8
  store i64 %i, ptr %i.addr, align 8
  %this1 = load ptr, ptr %this.addr, align 8
  %ptr = getelementptr inbounds %"class.icu_75::MaybeStackArray.0", ptr %this1, i32 0, i32 0
  %0 = load ptr, ptr %ptr, align 8
  %1 = load i64, ptr %i.addr, align 8
  %arrayidx = getelementptr inbounds ptr, ptr %0, i64 %1
  ret ptr %arrayidx
}

; Function Attrs: mustprogress nounwind uwtable
define linkonce_odr void @_ZN6icu_7510MemoryPoolINS_14SingleUnitImplELi8EED2Ev(ptr noundef nonnull align 8 dereferenceable(88) %this) unnamed_addr #0 comdat align 2 personality ptr @__gxx_personality_v0 {
entry:
  %this.addr = alloca ptr, align 8
  %i = alloca i32, align 4
  store ptr %this, ptr %this.addr, align 8
  %this1 = load ptr, ptr %this.addr, align 8
  store i32 0, ptr %i, align 4
  br label %for.cond

for.cond:                                         ; preds = %for.inc, %entry
  %0 = load i32, ptr %i, align 4
  %fCount = getelementptr inbounds %"class.icu_75::MemoryPool", ptr %this1, i32 0, i32 0
  %1 = load i32, ptr %fCount, align 8
  %cmp = icmp slt i32 %0, %1
  br i1 %cmp, label %for.body, label %for.end

for.body:                                         ; preds = %for.cond
  %fPool = getelementptr inbounds %"class.icu_75::MemoryPool", ptr %this1, i32 0, i32 1
  %2 = load i32, ptr %i, align 4
  %conv = sext i32 %2 to i64
  %call = invoke noundef nonnull align 8 dereferenceable(8) ptr @_ZN6icu_7515MaybeStackArrayIPNS_14SingleUnitImplELi8EEixEl(ptr noundef nonnull align 8 dereferenceable(80) %fPool, i64 noundef %conv)
          to label %invoke.cont unwind label %terminate.lpad

invoke.cont:                                      ; preds = %for.body
  %3 = load ptr, ptr %call, align 8
  %isnull = icmp eq ptr %3, null
  br i1 %isnull, label %delete.end, label %delete.notnull

delete.notnull:                                   ; preds = %invoke.cont
  call void @_ZN6icu_757UMemorydlEPv(ptr noundef %3) #8
  br label %delete.end

delete.end:                                       ; preds = %delete.notnull, %invoke.cont
  br label %for.inc

for.inc:                                          ; preds = %delete.end
  %4 = load i32, ptr %i, align 4
  %inc = add nsw i32 %4, 1
  store i32 %inc, ptr %i, align 4
  br label %for.cond, !llvm.loop !11

for.end:                                          ; preds = %for.cond
  %fPool2 = getelementptr inbounds %"class.icu_75::MemoryPool", ptr %this1, i32 0, i32 1
  call void @_ZN6icu_7515MaybeStackArrayIPNS_14SingleUnitImplELi8EED2Ev(ptr noundef nonnull align 8 dereferenceable(80) %fPool2) #8
  ret void

terminate.lpad:                                   ; preds = %for.body
  %5 = landingpad { ptr, i32 }
          catch ptr null
  %6 = extractvalue { ptr, i32 } %5, 0
  call void @__clang_call_terminate(ptr %6) #10
  unreachable
}

; Function Attrs: mustprogress nounwind uwtable
define linkonce_odr void @_ZN6icu_7516MaybeStackVectorINS_14SingleUnitImplELi8EED2Ev(ptr noundef nonnull align 8 dereferenceable(88) %this) unnamed_addr #0 comdat align 2 {
entry:
  %this.addr = alloca ptr, align 8
  store ptr %this, ptr %this.addr, align 8
  %this1 = load ptr, ptr %this.addr, align 8
  call void @_ZN6icu_7510MemoryPoolINS_14SingleUnitImplELi8EED2Ev(ptr noundef nonnull align 8 dereferenceable(88) %this1) #8
  ret void
}

; Function Attrs: mustprogress nounwind uwtable
define linkonce_odr void @_ZN6icu_7510CharStringD2Ev(ptr noundef nonnull align 8 dereferenceable(60) %this) unnamed_addr #0 comdat align 2 {
entry:
  %this.addr = alloca ptr, align 8
  store ptr %this, ptr %this.addr, align 8
  %this1 = load ptr, ptr %this.addr, align 8
  %buffer = getelementptr inbounds %"class.icu_75::CharString", ptr %this1, i32 0, i32 0
  call void @_ZN6icu_7515MaybeStackArrayIcLi40EED1Ev(ptr noundef nonnull align 8 dereferenceable(53) %buffer) #8
  ret void
}

; Function Attrs: mustprogress nounwind uwtable
define linkonce_odr void @_ZN6icu_7515MeasureUnitImplD2Ev(ptr noundef nonnull align 8 dereferenceable(160) %this) unnamed_addr #0 comdat align 2 {
entry:
  %this.addr = alloca ptr, align 8
  store ptr %this, ptr %this.addr, align 8
  %this1 = load ptr, ptr %this.addr, align 8
  %identifier = getelementptr inbounds %"class.icu_75::MeasureUnitImpl", ptr %this1, i32 0, i32 2
  call void @_ZN6icu_7510CharStringD2Ev(ptr noundef nonnull align 8 dereferenceable(60) %identifier) #8
  %singleUnits = getelementptr inbounds %"class.icu_75::MeasureUnitImpl", ptr %this1, i32 0, i32 1
  call void @_ZN6icu_7516MaybeStackVectorINS_14SingleUnitImplELi8EED2Ev(ptr noundef nonnull align 8 dereferenceable(88) %singleUnits) #8
  ret void
}

; Function Attrs: mustprogress nounwind uwtable
define void @_ZN6icu_7511MeasureUnitD2Ev(ptr noundef nonnull align 8 dereferenceable(19) %this) unnamed_addr #0 align 2 {
entry:
  %this.addr = alloca ptr, align 8
  store ptr %this, ptr %this.addr, align 8
  %this1 = load ptr, ptr %this.addr, align 8
  store ptr getelementptr inbounds ({ [7 x ptr] }, ptr @_ZTVN6icu_7511MeasureUnitE, i32 0, i32 0, i32 2), ptr %this1, align 8
  %fImpl = getelementptr inbounds %"class.icu_75::MeasureUnit", ptr %this1, i32 0, i32 1
  %0 = load ptr, ptr %fImpl, align 8
  %cmp = icmp ne ptr %0, null
  br i1 %cmp, label %if.then, label %if.end

if.then:                                          ; preds = %entry
  %fImpl2 = getelementptr inbounds %"class.icu_75::MeasureUnit", ptr %this1, i32 0, i32 1
  %1 = load ptr, ptr %fImpl2, align 8
  %isnull = icmp eq ptr %1, null
  br i1 %isnull, label %delete.end, label %delete.notnull

delete.notnull:                                   ; preds = %if.then
  call void @_ZN6icu_7515MeasureUnitImplD2Ev(ptr noundef nonnull align 8 dereferenceable(160) %1) #8
  call void @_ZN6icu_757UMemorydlEPv(ptr noundef %1) #8
  br label %delete.end

delete.end:                                       ; preds = %delete.notnull, %if.then
  %fImpl3 = getelementptr inbounds %"class.icu_75::MeasureUnit", ptr %this1, i32 0, i32 1
  store ptr null, ptr %fImpl3, align 8
  br label %if.end

if.end:                                           ; preds = %delete.end, %entry
  call void @_ZN6icu_757UObjectD2Ev(ptr noundef nonnull align 8 dereferenceable(8) %this1) #8
  ret void
}